TN:
SF:/home/nata/Desktop/2024_Analysis_Airline-Reservation-System/Airline-Reservation-System/src/Flight.h
FN:116,_ZN6Flight18getTotalFlightTimeEv
FNDA:294,_ZN6Flight18getTotalFlightTimeEv
FN:139,_ZlsRSoR6Flight
FNDA:16,_ZlsRSoR6Flight
DA:6,1294
DA:15,1285
DA:16,0
DA:18,110
DA:20,220
DA:21,110
DA:23,110
DA:25,110
DA:59,349
DA:61,333
DA:64,636
DA:66,620
DA:69,46
DA:71,36
DA:74,19
DA:76,3
DA:79,19
DA:81,3
DA:84,314
DA:86,283
DA:89,38
DA:91,6
DA:94,21
DA:96,21
DA:97,21
DA:98,21
DA:99,195
DA:100,174
DA:101,174
DA:102,174
DA:103,12
DA:107,5
DA:109,294
DA:111,294
DA:112,294
DA:113,294
DA:114,294
DA:116,294
DA:118,294
DA:120,38
DA:122,6
DA:124,38
DA:126,6
DA:128,2820
DA:129,2820
DA:139,16
DA:140,16
DA:141,16
DA:142,16
DA:143,16
DA:144,16
DA:145,16
DA:148,5
DA:149,16
DA:152,2
DA:153,16
DA:156,2
DA:157,16
DA:160,0
DA:161,16
DA:162,9
DA:164,7
DA:165,2
DA:168,5
DA:169,5
DA:172,0
DA:173,16
DA:175,16
DA:176,14
DA:178,2
DA:179,0
DA:182,2
DA:183,2
DA:186,0
DA:187,16
DA:189,32
DA:190,16
DA:191,16
end_of_record
SF:/usr/include/x86_64-linux-gnu/qt5/QtCore/qstring.h
FN:704,_ZN7QString8fromUtf8EPKci
FNDA:10,_ZN7QString8fromUtf8EPKci
FN:835,_ZN7QStringC2EPKc
FNDA:38,_ZN7QStringC2EPKc
FN:1311,_ZN7QStringD2Ev
FNDA:48,_ZN7QStringD2Ev
DA:704,10
DA:706,10
DA:835,38
DA:836,38
DA:837,38
DA:1311,48
DA:1361,38
DA:1362,38
DA:1555,10
DA:1556,10
end_of_record
SF:/home/nata/Desktop/2024_Analysis_Airline-Reservation-System/Airline-Reservation-System/src/DateAndTime.h
FN:39,_ZN4Date7getDateB5cxx11Ev
FNDA:2820,_ZN4Date7getDateB5cxx11Ev
DA:12,1453
DA:15,110
DA:17,110
DA:19,110
DA:21,110
DA:23,110
DA:25,110
DA:27,19
DA:29,19
DA:31,19
DA:33,19
DA:35,46
DA:37,46
DA:39,2820
DA:40,5640
DA:41,2820
DA:50,220
DA:52,220
DA:54,220
DA:56,220
DA:58,663
DA:60,369
DA:62,370
DA:64,76
DA:70,294
DA:72,294
end_of_record
SF:/usr/include/c++/11/bits/move.h
DA:104,12634
end_of_record
SF:/usr/include/c++/11/bits/basic_string.tcc
FN:206,_ZNSt7__cxx1112basic_stringIcSt11char_traitsIcESaIcEE12_M_constructIPcEEvT_S7_St20forward_iterator_tag
FNDA:13201,_ZNSt7__cxx1112basic_stringIcSt11char_traitsIcESaIcEE12_M_constructIPcEEvT_S7_St20forward_iterator_tag
FN:206,_ZNSt7__cxx1112basic_stringIcSt11char_traitsIcESaIcEE12_M_constructIPKcEEvT_S8_St20forward_iterator_tag
FNDA:254,_ZNSt7__cxx1112basic_stringIcSt11char_traitsIcESaIcEE12_M_constructIPKcEEvT_S8_St20forward_iterator_tag
DA:206,13201
DA:211,13201
DA:212,0
DA:215,13201
DA:217,13201
DA:219,4
DA:220,13201
DA:225,13201
DA:232,13201
DA:233,13201
DA:206,254
DA:211,254
DA:212,0
DA:215,254
DA:217,254
DA:219,12
DA:220,254
DA:225,254
DA:232,254
DA:233,254
end_of_record
SF:/usr/include/c++/11/bits/charconv.h
FN:47,_ZNSt8__detail14__to_chars_lenIjEEjT_i
FNDA:8460,_ZNSt8__detail14__to_chars_lenIjEEjT_i
FN:72,_ZNSt8__detail18__to_chars_10_implIjEEvPcjT_
FNDA:8460,_ZNSt8__detail18__to_chars_10_implIjEEvPcjT_
DA:47,8460
DA:52,8460
DA:53,8460
DA:54,8460
DA:55,8460
DA:56,0
DA:58,8460
DA:59,5640
DA:60,2820
DA:61,2820
DA:62,0
DA:63,0
DA:72,8460
DA:83,8460
DA:84,11280
DA:86,2820
DA:87,2820
DA:88,2820
DA:89,2820
DA:90,2820
DA:92,8460
DA:94,5640
DA:95,5640
DA:96,5640
DA:99,2820
DA:100,8460
end_of_record
SF:/home/nata/Desktop/2024_Analysis_Airline-Reservation-System/Airline-Reservation-System/src/List.h
FN:13,_ZN8ListNodeC2Ev
FNDA:37,_ZN8ListNodeC2Ev
FN:24,_ZN4ListC2Ev
FNDA:33,_ZN4ListC2Ev
FN:42,_ZN4List6insertERK6FlightRKNSt7__cxx1112basic_stringIcSt11char_traitsIcESaIcEEERKd
FNDA:37,_ZN4List6insertERK6FlightRKNSt7__cxx1112basic_stringIcSt11char_traitsIcESaIcEEERKd
FN:140,_ZN4ListD2Ev
FNDA:33,_ZN4ListD2Ev
DA:6,37
DA:13,37
DA:14,37
DA:17,13
DA:24,33
DA:25,33
DA:26,33
DA:27,33
DA:28,33
DA:30,25
DA:31,50
DA:32,25
DA:34,8190
DA:35,8190
DA:38,1213
DA:39,1213
DA:42,37
DA:43,37
DA:44,13
DA:45,13
DA:46,13
DA:47,13
DA:48,13
DA:52,24
DA:53,52
DA:54,28
DA:57,24
DA:58,24
DA:59,24
DA:60,24
DA:61,24
DA:63,37
DA:140,33
DA:141,70
DA:142,37
DA:143,37
DA:144,74
DA:146,33
end_of_record
SF:/home/nata/Desktop/2024_Analysis_Airline-Reservation-System/Airline-Reservation-System/src/Vector.h
FN:9,_ZN6VectorI4ListEC2Ei
FNDA:1,_ZN6VectorI4ListEC2Ei
FN:9,_ZN6VectorI6FlightEC2Ei
FNDA:37,_ZN6VectorI6FlightEC2Ei
FN:32,_ZN6VectorI4ListE6insertERKS0_
FNDA:13,_ZN6VectorI4ListE6insertERKS0_
FN:32,_ZN6VectorI6FlightE6insertERKS0_
FNDA:110,_ZN6VectorI6FlightE6insertERKS0_
FN:57,_ZN6VectorI6FlightE5printEv
FNDA:1,_ZN6VectorI6FlightE5printEv
FN:80,_ZN6VectorI4ListED2Ev
FNDA:1,_ZN6VectorI4ListED2Ev
FN:80,_ZN6VectorI6FlightED2Ev
FNDA:37,_ZN6VectorI6FlightED2Ev
DA:9,21
DA:10,1
DA:9,777
DA:10,37
DA:23,3208
DA:24,3208
DA:32,13
DA:33,13
DA:34,0
DA:35,0
DA:37,0
DA:38,0
DA:41,0
DA:42,0
DA:44,13
DA:45,13
DA:46,13
DA:32,110
DA:33,110
DA:34,0
DA:35,0
DA:37,0
DA:38,0
DA:41,0
DA:42,0
DA:44,110
DA:45,110
DA:46,110
DA:57,1
DA:58,3
DA:59,2
DA:61,1
DA:75,13272
DA:76,12867
DA:80,1
DA:81,1
DA:82,1
DA:83,21
DA:84,1
DA:80,37
DA:81,37
DA:82,37
DA:83,777
DA:84,37
end_of_record
SF:/usr/include/c++/11/ext/string_conversions.h
FN:54,_ZN9__gnu_cxx6__stoaIddcJEEET0_PFT_PKT1_PPS3_DpT2_EPKcS5_PmS9_
FNDA:12,_ZN9__gnu_cxx6__stoaIddcJEEET0_PFT_PKT1_PPS3_DpT2_EPKcS5_PmS9_
FN:54,_ZN9__gnu_cxx6__stoaIlicJiEEET0_PFT_PKT1_PPS3_DpT2_EPKcS5_PmS9_
FNDA:1008,_ZN9__gnu_cxx6__stoaIlicJiEEET0_PFT_PKT1_PPS3_DpT2_EPKcS5_PmS9_
FN:64,_ZZN9__gnu_cxx6__stoaIddcJEEET0_PFT_PKT1_PPS3_DpT2_EPKcS5_PmS9_EN11_Save_errnoD2Ev
FNDA:12,_ZZN9__gnu_cxx6__stoaIddcJEEET0_PFT_PKT1_PPS3_DpT2_EPKcS5_PmS9_EN11_Save_errnoD2Ev
FN:64,_ZZN9__gnu_cxx6__stoaIlicJiEEET0_PFT_PKT1_PPS3_DpT2_EPKcS5_PmS9_EN11_Save_errnoD2Ev
FNDA:1008,_ZZN9__gnu_cxx6__stoaIlicJiEEET0_PFT_PKT1_PPS3_DpT2_EPKcS5_PmS9_EN11_Save_errnoD2Ev
DA:54,12
DA:63,12
DA:66,12
DA:80,12
DA:82,12
DA:83,0
DA:84,12
DA:85,12
DA:86,0
DA:88,12
DA:90,12
DA:91,0
DA:93,12
DA:94,12
DA:54,1008
DA:63,1008
DA:66,1008
DA:73,1008
DA:76,1008
DA:80,1008
DA:82,1008
DA:83,0
DA:84,1008
DA:85,1008
DA:86,0
DA:88,1008
DA:90,1008
DA:91,0
DA:93,1008
DA:94,1008
DA:64,12
DA:64,1008
end_of_record
SF:/usr/include/c++/11/bits/basic_string.h
FN:533,_ZNSt7__cxx1112basic_stringIcSt11char_traitsIcESaIcEEC2IS3_EEPKcRKS3_
FNDA:254,_ZNSt7__cxx1112basic_stringIcSt11char_traitsIcESaIcEEC2IS3_EEPKcRKS3_
FN:1491,_ZNSt7__cxx1112basic_stringIcSt11char_traitsIcESaIcEE6assignIPcvEERS4_T_S8_
FNDA:10,_ZNSt7__cxx1112basic_stringIcSt11char_traitsIcESaIcEE6assignIPcvEERS4_T_S8_
FN:6172,_ZStplIcSt11char_traitsIcESaIcEENSt7__cxx1112basic_stringIT_T0_T1_EEOS8_S9_
FNDA:5640,_ZStplIcSt11char_traitsIcESaIcEENSt7__cxx1112basic_stringIT_T0_T1_EEOS8_S9_
FN:6206,_ZStplIcSt11char_traitsIcESaIcEENSt7__cxx1112basic_stringIT_T0_T1_EEOS8_PKS5_
FNDA:5640,_ZStplIcSt11char_traitsIcESaIcEENSt7__cxx1112basic_stringIT_T0_T1_EEOS8_PKS5_
FN:6234,_ZSteqIcEN9__gnu_cxx11__enable_ifIXsrSt9__is_charIT_E7__valueEbE6__typeERKNSt7__cxx1112basic_stringIS3_St11char_traitsIS3_ESaIS3_EEESE_
FNDA:20046,_ZSteqIcEN9__gnu_cxx11__enable_ifIXsrSt9__is_charIT_E7__valueEbE6__typeERKNSt7__cxx1112basic_stringIS3_St11char_traitsIS3_ESaIS3_EEESE_
FN:6660,_ZNSt7__cxx119to_stringEi
FNDA:8460,_ZNSt7__cxx119to_stringEi
DA:158,34682
DA:164,8714
DA:165,8714
DA:167,12711
DA:168,1351
DA:186,11299
DA:187,16
DA:190,26166
DA:191,26166
DA:194,72632
DA:195,13455
DA:198,384
DA:201,12250
DA:208,16923
DA:211,16920
DA:218,16
DA:219,16
DA:222,26166
DA:224,26166
DA:225,1351
DA:229,16923
DA:230,16923
DA:294,11283
DA:295,11283
DA:400,13201
DA:401,13201
DA:404,254
DA:406,254
DA:439,1428
DA:441,1351
DA:442,1351
DA:533,254
DA:534,254
DA:536,254
DA:539,254
DA:540,254
DA:553,8460
DA:554,8460
DA:555,8460
DA:565,11283
DA:566,3
DA:568,11283
DA:570,11283
DA:575,0
DA:576,0
DA:582,11283
DA:583,11283
DA:584,3
DA:585,5640
DA:671,3235
DA:672,18253
DA:679,1202
DA:681,1149
DA:689,803
DA:690,803
DA:816,10
DA:817,10
DA:832,10
DA:833,10
DA:920,25753
DA:921,25753
DA:926,11283
DA:927,5643
DA:976,5640
DA:978,0
DA:1055,1
DA:1059,19902
DA:1062,5401
DA:1178,1699
DA:1180,1699
DA:1181,1699
DA:1213,5640
DA:1214,5640
DA:1356,1202
DA:1387,1202
DA:1491,10
DA:1492,10
DA:1660,0
DA:1661,0
DA:1662,0
DA:2320,1020
DA:2321,1020
DA:2332,7508
DA:2333,10
DA:6172,5640
DA:6179,5640
DA:6185,5640
DA:6186,5640
DA:6187,0
DA:6189,5640
DA:6206,5640
DA:6208,5640
DA:6234,20046
DA:6236,20046
DA:6237,20046
DA:6238,20046
DA:6248,2
DA:6250,2
DA:6302,14
DA:6305,14
DA:6327,0
DA:6329,0
DA:6531,47
DA:6536,47
DA:6619,1008
DA:6620,1008
DA:6649,12
DA:6650,12
DA:6660,8460
DA:6662,8460
DA:6663,8460
DA:6664,8460
DA:6665,8460
DA:6666,8460
DA:6667,8460
end_of_record
SF:/usr/include/c++/11/bits/stl_iterator_base_funcs.h
DA:98,13455
DA:104,13455
DA:138,13455
DA:141,13455
end_of_record
SF:/home/nata/Desktop/2024_Analysis_Airline-Reservation-System/Airline-Reservation-System/src/Stack.h
FN:38,_ZN5StackINSt7__cxx1112basic_stringIcSt11char_traitsIcESaIcEEEE4pushES5_
FNDA:3,_ZN5StackINSt7__cxx1112basic_stringIcSt11char_traitsIcESaIcEEEE4pushES5_
FN:38,_ZN5StackI6FlightE4pushES0_
FNDA:3,_ZN5StackI6FlightE4pushES0_
FN:45,_ZN5StackINSt7__cxx1112basic_stringIcSt11char_traitsIcESaIcEEEE3popEv
FNDA:3,_ZN5StackINSt7__cxx1112basic_stringIcSt11char_traitsIcESaIcEEEE3popEv
FN:45,_ZN5StackI6FlightE3popEv
FNDA:3,_ZN5StackI6FlightE3popEv
FN:57,_ZN5StackINSt7__cxx1112basic_stringIcSt11char_traitsIcESaIcEEEE5clearEv
FNDA:4,_ZN5StackINSt7__cxx1112basic_stringIcSt11char_traitsIcESaIcEEEE5clearEv
FN:57,_ZN5StackI6FlightE5clearEv
FNDA:4,_ZN5StackI6FlightE5clearEv
DA:6,9
DA:11,6
DA:20,4
DA:23,26
DA:24,18
DA:38,3
DA:39,3
DA:40,3
DA:41,3
DA:42,3
DA:43,3
DA:38,3
DA:39,3
DA:40,3
DA:41,3
DA:42,3
DA:43,3
DA:45,3
DA:46,0
DA:47,3
DA:48,3
DA:49,3
DA:50,3
DA:51,3
DA:52,3
DA:54,3
DA:45,3
DA:46,0
DA:47,3
DA:48,3
DA:49,6
DA:50,3
DA:51,3
DA:52,3
DA:54,3
DA:57,4
DA:58,4
DA:59,0
DA:61,4
DA:57,4
DA:58,4
DA:59,0
DA:61,4
DA:63,8
DA:64,4
DA:65,4
end_of_record
SF:/usr/include/x86_64-linux-gnu/qt5/QtCore/qbasicatomic.h
DA:107,48
DA:119,48
end_of_record
SF:/usr/include/c++/11/bits/stl_iterator.h
DA:1027,10
DA:1033,10
DA:1037,10
DA:1105,10
end_of_record
SF:/home/nata/Desktop/2024_Analysis_Airline-Reservation-System/Airline-Reservation-System/src/UserInterface.h
FN:10,_ZN2UI11displayMenuER5Graph
FNDA:10,_ZN2UI11displayMenuER5Graph
DA:10,10
DA:11,10
DA:12,10
DA:13,30
DA:14,20
DA:15,20
DA:16,20
DA:17,20
DA:18,20
DA:20,20
DA:21,4
DA:22,4
DA:23,4
DA:24,4
DA:25,4
DA:26,2
DA:27,2
DA:28,2
DA:29,2
DA:30,2
DA:31,2
DA:32,2
DA:33,2
DA:34,2
DA:35,2
DA:36,2
DA:37,2
DA:38,4
DA:40,2
DA:41,2
DA:42,2
DA:43,2
DA:44,2
DA:45,2
DA:46,2
DA:47,2
DA:48,2
DA:49,2
DA:50,2
DA:51,4
DA:52,4
DA:53,2
DA:54,4
DA:55,4
DA:58,16
DA:59,6
DA:60,6
DA:61,6
DA:62,6
DA:63,6
DA:64,6
DA:65,2
DA:66,2
DA:67,2
DA:68,2
DA:69,2
DA:70,2
DA:71,2
DA:72,2
DA:73,2
DA:74,4
DA:76,2
DA:77,4
DA:78,2
DA:79,2
DA:80,2
DA:81,2
DA:82,2
DA:83,2
DA:84,2
DA:85,4
DA:87,2
DA:88,2
DA:89,2
DA:90,2
DA:91,2
DA:92,2
DA:93,2
DA:94,2
DA:95,2
DA:96,2
DA:97,2
DA:98,2
DA:99,2
DA:100,2
DA:101,4
DA:102,2
DA:103,6
DA:104,6
DA:108,10
end_of_record
SF:/home/nata/Desktop/2024_Analysis_Airline-Reservation-System/Airline-Reservation-System/src/makeGraph.h
FN:11,_ZN9makeGraph12readFromFileENSt7__cxx1112basic_stringIcSt11char_traitsIcESaIcEEES5_RiR6VectorI4ListE
FNDA:1,_ZN9makeGraph12readFromFileENSt7__cxx1112basic_stringIcSt11char_traitsIcESaIcEEES5_RiR6VectorI4ListE
DA:11,1
DA:12,1
DA:13,1
DA:14,1
DA:16,1
DA:17,1
DA:19,1
DA:21,13
DA:22,12
DA:24,1
DA:26,13
DA:27,1
DA:28,1
DA:30,1
DA:32,13
DA:33,12
DA:34,12
DA:35,12
DA:36,12
DA:37,12
DA:38,12
DA:41,1
DA:43,1
DA:44,111
DA:45,110
DA:46,110
DA:47,110
DA:48,110
DA:50,110
DA:51,110
DA:52,110
DA:53,110
DA:54,110
DA:56,1100
DA:57,990
DA:58,770
DA:61,990
DA:62,330
DA:63,110
DA:64,110
DA:65,110
DA:68,220
DA:69,110
DA:70,110
DA:71,110
DA:75,110
DA:76,990
DA:81,110
DA:82,110
DA:84,611
DA:85,501
DA:86,391
DA:89,501
DA:90,220
DA:91,110
DA:92,110
DA:93,110
DA:96,110
DA:97,110
DA:98,501
DA:103,110
DA:106,630
DA:107,520
DA:108,410
DA:110,520
DA:111,220
DA:112,110
DA:113,110
DA:114,110
DA:116,110
DA:117,110
DA:118,520
DA:124,110
DA:125,110
DA:126,110
DA:127,220
DA:129,652
DA:130,648
DA:131,106
DA:132,106
DA:135,1250
DA:137,1140
DA:139,97
DA:140,97
DA:141,430
DA:142,333
DA:144,73
DA:148,333
DA:150,97
DA:152,24
DA:157,110
DA:158,13
DA:159,13
DA:160,13
DA:161,13
DA:162,13
DA:163,13
DA:164,110
DA:165,1
DA:169,0
DA:171,1
DA:172,1
end_of_record
SF:/usr/include/c++/11/bits/allocator.h
DA:156,10064
DA:159,21348
DA:160,19997
DA:174,29346
end_of_record
SF:/usr/include/c++/11/ostream
DA:108,416
DA:113,345
DA:220,36
DA:221,36
end_of_record
SF:/usr/include/c++/11/bits/ios_base.h
DA:165,137
DA:166,137
end_of_record
SF:/usr/include/c++/11/bits/char_traits.h
DA:356,26166
DA:357,6994
DA:372,7451
DA:374,7451
DA:377,7451
DA:389,7451
DA:393,254
DA:396,254
DA:399,254
DA:429,11283
DA:431,11283
DA:437,11283
end_of_record
SF:/usr/include/c++/11/streambuf
end_of_record
SF:/usr/include/x86_64-linux-gnu/qt5/QtCore/qscopedpointer.h
DA:116,18
DA:118,18
end_of_record
SF:/usr/include/c++/11/bits/basic_ios.h
DA:117,13
DA:118,13
DA:137,138
DA:138,138
DA:180,1
DA:181,1
DA:190,124
DA:191,124
DA:201,13
DA:202,13
end_of_record
SF:/usr/include/x86_64-linux-gnu/qt5/QtCore/qatomic_cxx11.h
DA:237,48
DA:239,48
DA:287,48
DA:289,48
end_of_record
SF:/usr/include/c++/11/iostream
end_of_record
SF:/home/nata/Desktop/2024_Analysis_Airline-Reservation-System/Airline-Reservation-System/src/Graph.h
FN:23,_ZN8costInfoC2Ev
FNDA:77,_ZN8costInfoC2Ev
FN:40,_ZN5Graph13getVertix_numENSt7__cxx1112basic_stringIcSt11char_traitsIcESaIcEEE
FNDA:1125,_ZN5Graph13getVertix_numENSt7__cxx1112basic_stringIcSt11char_traitsIcESaIcEEE
FN:49,_ZN5Graph7minimumEP8costInfoPb
FNDA:70,_ZN5Graph7minimumEP8costInfoPb
FN:64,_ZN5Graph16getChildLocationENSt7__cxx1112basic_stringIcSt11char_traitsIcESaIcEEEi
FNDA:1107,_ZN5Graph16getChildLocationENSt7__cxx1112basic_stringIcSt11char_traitsIcESaIcEEEi
FN:78,_ZN5Graph20getMinimumFlightRateER6VectorI6FlightERNSt7__cxx1112basic_stringIcSt11char_traitsIcESaIcEEES9_S9_4TimeS9_
FNDA:146,_ZN5Graph20getMinimumFlightRateER6VectorI6FlightERNSt7__cxx1112basic_stringIcSt11char_traitsIcESaIcEEES9_S9_4TimeS9_
FN:105,_ZN5Graph20getMinimumFlightTimeER6VectorI6FlightERNSt7__cxx1112basic_stringIcSt11char_traitsIcESaIcEEES9_S9_4Time
FNDA:110,_ZN5Graph20getMinimumFlightTimeER6VectorI6FlightERNSt7__cxx1112basic_stringIcSt11char_traitsIcESaIcEEES9_S9_4Time
FN:127,_ZN5Graph17getMinimumFlightTER6VectorI6FlightERNSt7__cxx1112basic_stringIcSt11char_traitsIcESaIcEEES9_S9_4Time
FNDA:30,_ZN5Graph17getMinimumFlightTER6VectorI6FlightERNSt7__cxx1112basic_stringIcSt11char_traitsIcESaIcEEES9_S9_4Time
FN:153,_ZN5Graph16getMinimumFlightER6VectorI6FlightERNSt7__cxx1112basic_stringIcSt11char_traitsIcESaIcEEES9_S9_4TimeS9_
FNDA:146,_ZN5Graph16getMinimumFlightER6VectorI6FlightERNSt7__cxx1112basic_stringIcSt11char_traitsIcESaIcEEES9_S9_4TimeS9_
FN:180,_ZN5Graph7getCostEP8costInfoNSt7__cxx1112basic_stringIcSt11char_traitsIcESaIcEEE
FNDA:208,_ZN5Graph7getCostEP8costInfoNSt7__cxx1112basic_stringIcSt11char_traitsIcESaIcEEE
FN:190,_ZN5Graph17getCostArrayIndexENSt7__cxx1112basic_stringIcSt11char_traitsIcESaIcEEEP8costInfo
FNDA:921,_ZN5Graph17getCostArrayIndexENSt7__cxx1112basic_stringIcSt11char_traitsIcESaIcEEEP8costInfo
FN:200,_ZN5Graph18displayMinCostPathENSt7__cxx1112basic_stringIcSt11char_traitsIcESaIcEEES5_R5StackI6FlightERS6_IS5_EP8costInfoRi
FNDA:4,_ZN5Graph18displayMinCostPathENSt7__cxx1112basic_stringIcSt11char_traitsIcESaIcEEES5_R5StackI6FlightERS6_IS5_EP8costInfoRi
FN:219,_ZN5Graph18displayMinTimePathENSt7__cxx1112basic_stringIcSt11char_traitsIcESaIcEEES5_R5StackI6FlightERS6_IS5_EP8costInfoRi
FNDA:3,_ZN5Graph18displayMinTimePathENSt7__cxx1112basic_stringIcSt11char_traitsIcESaIcEEES5_R5StackI6FlightERS6_IS5_EP8costInfoRi
FN:239,_ZN5GraphC2ENSt7__cxx1112basic_stringIcSt11char_traitsIcESaIcEEES5_
FNDA:1,_ZN5GraphC2ENSt7__cxx1112basic_stringIcSt11char_traitsIcESaIcEEES5_
FN:244,_ZN5Graph16direct_traversalENSt7__cxx1112basic_stringIcSt11char_traitsIcESaIcEEES5_S5_S5_
FNDA:2,_ZN5Graph16direct_traversalENSt7__cxx1112basic_stringIcSt11char_traitsIcESaIcEEES5_S5_S5_
FN:301,_ZN5Graph19connected_traversalENSt7__cxx1112basic_stringIcSt11char_traitsIcESaIcEEES5_S5_S5_
FNDA:2,_ZN5Graph19connected_traversalENSt7__cxx1112basic_stringIcSt11char_traitsIcESaIcEEES5_S5_S5_
FN:379,_ZN5Graph12transit_timeENSt7__cxx1112basic_stringIcSt11char_traitsIcESaIcEEES5_S5_iS5_
FNDA:4,_ZN5Graph12transit_timeENSt7__cxx1112basic_stringIcSt11char_traitsIcESaIcEEES5_S5_iS5_
FN:469,_ZN5Graph8dijkstraENSt7__cxx1112basic_stringIcSt11char_traitsIcESaIcEEES5_S5_
FNDA:4,_ZN5Graph8dijkstraENSt7__cxx1112basic_stringIcSt11char_traitsIcESaIcEEES5_S5_
FN:540,_ZN5Graph16MinimumTimeQueryENSt7__cxx1112basic_stringIcSt11char_traitsIcESaIcEEES5_
FNDA:3,_ZN5Graph16MinimumTimeQueryENSt7__cxx1112basic_stringIcSt11char_traitsIcESaIcEEES5_
FN:584,_ZN5Graph15findMinTimePathENSt7__cxx1112basic_stringIcSt11char_traitsIcESaIcEEES5_S5_
FNDA:2,_ZN5Graph15findMinTimePathENSt7__cxx1112basic_stringIcSt11char_traitsIcESaIcEEES5_S5_
FN:665,_ZN5Graph15findMinCostPathENSt7__cxx1112basic_stringIcSt11char_traitsIcESaIcEEES5_S5_S5_
FNDA:2,_ZN5Graph15findMinCostPathENSt7__cxx1112basic_stringIcSt11char_traitsIcESaIcEEES5_S5_S5_
DA:23,77
DA:24,77
DA:27,1
DA:40,1125
DA:41,6977
DA:42,6973
DA:43,1121
DA:49,70
DA:51,70
DA:52,70
DA:53,840
DA:55,770
DA:57,303
DA:58,303
DA:61,70
DA:64,1107
DA:66,1107
DA:67,1107
DA:68,1107
DA:69,2897
DA:70,1790
DA:71,1107
DA:73,1107
DA:78,146
DA:80,146
DA:81,146
DA:83,669
DA:84,523
DA:86,523
DA:87,246
DA:88,15
DA:89,15
DA:94,974
DA:95,22
DA:96,22
DA:97,22
DA:102,146
DA:103,146
DA:105,110
DA:107,110
DA:108,110
DA:109,444
DA:110,334
DA:111,334
DA:112,170
DA:113,13
DA:114,13
DA:118,579
DA:119,49
DA:120,49
DA:121,49
DA:125,110
DA:126,110
DA:127,30
DA:129,30
DA:130,30
DA:132,136
DA:133,106
DA:135,106
DA:136,74
DA:137,13
DA:138,13
DA:143,140
DA:144,2
DA:145,2
DA:146,2
DA:151,30
DA:152,0
DA:153,146
DA:155,146
DA:156,146
DA:158,669
DA:159,523
DA:161,523
DA:162,246
DA:163,15
DA:164,15
DA:169,974
DA:170,22
DA:171,22
DA:172,22
DA:177,146
DA:178,0
DA:180,208
DA:181,1777
DA:182,1714
DA:183,145
DA:190,921
DA:191,5816
DA:192,5816
DA:193,921
DA:200,4
DA:201,4
DA:202,46
DA:203,43
DA:204,1
DA:205,1
DA:206,1
DA:207,9
DA:212,42
DA:213,45
DA:217,4
DA:219,3
DA:220,3
DA:221,24
DA:222,23
DA:223,3
DA:224,2
DA:225,2
DA:226,8
DA:231,21
DA:232,22
DA:236,3
DA:239,1
DA:240,1
DA:241,2
DA:242,1
DA:244,2
DA:245,2
DA:246,2
DA:247,2
DA:248,1
DA:249,1
DA:251,1
DA:252,3
DA:253,2
DA:254,1
DA:255,1
DA:256,1
DA:257,1
DA:258,1
DA:259,2
DA:260,1
DA:261,1
DA:262,1
DA:264,0
DA:265,0
DA:266,0
DA:267,0
DA:268,0
DA:269,0
DA:273,0
DA:274,0
DA:275,0
DA:276,0
DA:277,0
DA:278,0
DA:282,0
DA:283,0
DA:284,0
DA:285,0
DA:286,0
DA:287,0
DA:293,2
DA:295,1
DA:296,0
DA:301,2
DA:302,2
DA:303,2
DA:304,2
DA:305,1
DA:306,1
DA:308,1
DA:309,1
DA:310,1
DA:311,1
DA:312,1
DA:313,1
DA:314,1
DA:315,4
DA:316,3
DA:317,1
DA:318,3
DA:319,2
DA:320,1
DA:321,1
DA:322,1
DA:323,1
DA:324,1
DA:325,1
DA:326,1
DA:327,1
DA:328,1
DA:329,1
DA:330,1
DA:331,1
DA:332,1
DA:333,1
DA:334,4
DA:335,3
DA:336,1
DA:337,1
DA:338,1
DA:339,1
DA:340,1
DA:341,3
DA:342,2
DA:343,1
DA:344,1
DA:345,1
DA:346,1
DA:347,1
DA:350,1
DA:351,1
DA:352,1
DA:353,1
DA:354,2
DA:359,1
DA:360,1
DA:361,1
DA:365,3
DA:371,3
DA:374,1
DA:375,1
DA:379,4
DA:380,4
DA:381,4
DA:382,4
DA:383,2
DA:384,2
DA:386,2
DA:387,2
DA:388,2
DA:389,2
DA:390,2
DA:391,2
DA:392,2
DA:393,2
DA:394,2
DA:395,10
DA:396,8
DA:397,2
DA:398,10
DA:399,8
DA:400,4
DA:401,4
DA:402,4
DA:403,4
DA:404,4
DA:405,4
DA:406,4
DA:407,4
DA:408,4
DA:409,4
DA:410,4
DA:411,4
DA:412,4
DA:413,4
DA:414,13
DA:415,9
DA:416,4
DA:417,4
DA:418,4
DA:419,4
DA:420,4
DA:421,24
DA:422,20
DA:423,20
DA:424,1
DA:425,1
DA:426,1
DA:427,1
DA:428,1
DA:429,1
DA:433,19
DA:434,6
DA:435,6
DA:436,6
DA:437,6
DA:438,20
DA:446,4
DA:447,4
DA:448,4
DA:450,4
DA:451,1
DA:455,9
DA:461,8
DA:464,2
DA:465,2
DA:469,4
DA:470,48
DA:471,4
DA:472,4
DA:473,4
DA:475,48
DA:476,44
DA:477,44
DA:478,88
DA:481,4
DA:483,44
DA:484,40
DA:485,40
DA:487,168
DA:489,168
DA:490,168
DA:492,336
DA:493,336
DA:494,168
DA:495,168
DA:497,168
DA:498,128
DA:499,256
DA:500,128
DA:502,128
DA:503,128
DA:504,256
DA:506,256
DA:508,128
DA:509,128
DA:511,128
DA:512,28
DA:518,128
DA:520,1046
DA:522,18
DA:523,18
DA:524,36
DA:525,18
DA:526,18
DA:527,18
DA:528,18
DA:531,168
DA:536,4
DA:537,4
DA:538,4
DA:540,3
DA:542,36
DA:543,3
DA:544,3
DA:547,36
DA:548,33
DA:549,33
DA:550,66
DA:552,3
DA:554,33
DA:555,30
DA:556,30
DA:559,110
DA:561,220
DA:562,110
DA:563,110
DA:565,560
DA:567,30
DA:568,30
DA:569,30
DA:570,30
DA:571,30
DA:572,30
DA:574,110
DA:580,3
DA:581,3
DA:582,3
DA:584,2
DA:585,2
DA:586,2
DA:587,2
DA:588,2
DA:590,4
DA:592,2
DA:593,1
DA:595,1
DA:596,1
DA:598,2
DA:600,1
DA:601,1
DA:602,1
DA:605,2
DA:606,1
DA:607,1
DA:608,1
DA:610,1
DA:611,2
DA:612,1
DA:613,2
DA:614,1
DA:615,1
DA:618,2
DA:619,1
DA:621,1
DA:622,1
DA:624,1
DA:625,0
DA:626,0
DA:627,0
DA:629,0
DA:632,1
DA:633,0
DA:634,0
DA:635,0
DA:636,0
DA:637,0
DA:638,0
DA:640,0
DA:642,1
DA:644,2
DA:645,0
DA:646,0
DA:649,3
DA:650,1
DA:651,1
DA:652,1
DA:654,1
DA:655,2
DA:656,1
DA:657,2
DA:658,1
DA:659,1
DA:662,2
DA:663,1
DA:664,2
DA:665,2
DA:666,2
DA:667,2
DA:668,2
DA:669,2
DA:671,6
DA:673,2
DA:674,1
DA:676,1
DA:677,1
DA:679,2
DA:681,1
DA:682,0
DA:683,0
DA:686,1
DA:687,0
DA:688,0
DA:689,0
DA:691,0
DA:692,0
DA:693,0
DA:694,0
DA:695,0
DA:696,0
DA:699,0
DA:700,0
DA:702,1
DA:703,1
DA:705,1
DA:706,1
DA:707,1
DA:708,1
DA:710,2
DA:713,1
DA:714,0
DA:715,0
DA:716,0
DA:717,0
DA:718,0
DA:719,0
DA:721,0
DA:723,1
DA:725,2
DA:726,1
DA:727,1
DA:730,2
DA:731,1
DA:732,1
DA:733,1
DA:735,1
DA:736,2
DA:737,3
DA:738,6
DA:739,1
DA:740,1
DA:743,2
DA:744,1
DA:745,2
end_of_record
SF:/home/nata/Desktop/2024_Analysis_Airline-Reservation-System/unit_tests/tst_airline_reservation_system.moc
FN:108,_ZN4test18qt_static_metacallEP7QObjectN11QMetaObject4CallEiPPv
FNDA:12,_ZN4test18qt_static_metacallEP7QObjectN11QMetaObject4CallEiPPv
FN:142,_ZNK4test10metaObjectEv
FNDA:18,_ZNK4test10metaObjectEv
FN:147,_ZN4test11qt_metacastEPKc
FNDA:0,_ZN4test11qt_metacastEPKc
FN:155,_ZN4test11qt_metacallEN11QMetaObject4CallEiPPv
FNDA:0,_ZN4test11qt_metacallEN11QMetaObject4CallEiPPv
DA:108,12
DA:110,12
DA:111,12
DA:112,12
DA:113,12
DA:114,1
DA:115,1
DA:116,1
DA:117,1
DA:118,1
DA:119,1
DA:120,1
DA:121,1
DA:122,1
DA:123,1
DA:124,1
DA:125,1
DA:129,12
DA:130,12
DA:142,18
DA:144,18
DA:147,0
DA:149,0
DA:150,0
DA:152,0
DA:155,0
DA:157,0
DA:158,0
DA:160,0
DA:161,0
DA:162,0
DA:163,0
DA:164,0
DA:165,0
DA:166,0
DA:167,0
end_of_record
SF:/usr/include/c++/11/bits/atomic_base.h
DA:392,48
DA:393,48
DA:481,48
DA:485,48
DA:486,48
DA:488,48
end_of_record
SF:/usr/include/x86_64-linux-gnu/qt5/QtCore/qrefcount.h
FN:65,_ZN9QtPrivate8RefCount5derefEv
FNDA:48,_ZN9QtPrivate8RefCount5derefEv
DA:65,48
DA:66,48
DA:68,48
DA:71,48
DA:73,48
end_of_record
SF:/usr/include/c++/11/ext/new_allocator.h
DA:79,10064
DA:82,21348
DA:89,29346
end_of_record
SF:/usr/include/x86_64-linux-gnu/qt5/QtCore/qarraydata.h
DA:236,48
DA:239,48
DA:240,48
end_of_record
SF:/home/nata/Desktop/2024_Analysis_Airline-Reservation-System/unit_tests/tests/tst_airline_reservation_system.cpp
FN:21,_ZN4test12initTestCaseEv
FNDA:1,_ZN4test12initTestCaseEv
FN:25,_ZN4test15cleanupTestCaseEv
FNDA:1,_ZN4test15cleanupTestCaseEv
FN:29,_ZN4test27testBasicDirectFlight_FoundEv
FNDA:1,_ZN4test27testBasicDirectFlight_FoundEv
FN:72,_ZN4test30testBasicDirectFlight_NotFoundEv
FNDA:1,_ZN4test30testBasicDirectFlight_NotFoundEv
FN:98,_ZN4test30testBasicConnectedFlight_FoundEv
FNDA:1,_ZN4test30testBasicConnectedFlight_FoundEv
FN:151,_ZN4test33testBasicConnectedFlight_NotFoundEv
FNDA:1,_ZN4test33testBasicConnectedFlight_NotFoundEv
FN:178,_ZN4test35testAdvancedMinimumCostFlight_FoundEv
FNDA:1,_ZN4test35testAdvancedMinimumCostFlight_FoundEv
FN:216,_ZN4test38testAdvancedMinimumCostFlight_NotFoundEv
FNDA:1,_ZN4test38testAdvancedMinimumCostFlight_NotFoundEv
FN:242,_ZN4test35testAdvancedMinimumTimeFlight_FoundEv
FNDA:1,_ZN4test35testAdvancedMinimumTimeFlight_FoundEv
FN:277,_ZN4test40testAdvancedMinimumTimeFlight_FoundLaterEv
FNDA:1,_ZN4test40testAdvancedMinimumTimeFlight_FoundLaterEv
FN:308,_ZN4test33testAdvancedConnectedFlight_FoundEv
FNDA:1,_ZN4test33testAdvancedConnectedFlight_FoundEv
FN:362,_ZN4test36testAdvancedConnectedFlight_NotFoundEv
FNDA:1,_ZN4test36testAdvancedConnectedFlight_NotFoundEv
FN:391,_ZN4testC2Ev
FNDA:1,_ZN4testC2Ev
FN:392,_ZN4testD0Ev
FNDA:0,_ZN4testD0Ev
FN:392,_ZN4testD2Ev
FNDA:1,_ZN4testD2Ev
FN:394,main
FNDA:1,main
DA:21,1
DA:22,1
DA:23,1
DA:25,1
DA:26,2
DA:27,1
DA:29,1
DA:31,1
DA:39,1
DA:41,1
DA:43,1
DA:44,1
DA:46,1
DA:48,1
DA:49,1
DA:51,1
DA:52,2
DA:54,2
DA:55,2
DA:56,2
DA:57,2
DA:58,2
DA:64,2
DA:70,1
DA:72,1
DA:74,1
DA:82,1
DA:84,1
DA:86,1
DA:87,1
DA:89,1
DA:91,1
DA:92,1
DA:94,1
DA:95,2
DA:96,1
DA:98,1
DA:100,1
DA:108,1
DA:110,1
DA:112,1
DA:113,1
DA:115,1
DA:117,1
DA:118,1
DA:120,1
DA:121,2
DA:122,2
DA:123,2
DA:124,2
DA:125,2
DA:131,2
DA:140,2
DA:148,2
DA:149,1
DA:151,1
DA:153,1
DA:161,1
DA:163,1
DA:165,1
DA:166,1
DA:168,1
DA:170,1
DA:171,1
DA:173,1
DA:174,2
DA:175,1
DA:178,1
DA:180,1
DA:188,1
DA:190,1
DA:192,1
DA:193,1
DA:195,1
DA:197,1
DA:198,1
DA:200,1
DA:201,2
DA:204,2
DA:205,2
DA:206,2
DA:207,2
DA:208,2
DA:214,1
DA:216,1
DA:218,1
DA:226,1
DA:228,1
DA:230,1
DA:231,1
DA:233,1
DA:235,1
DA:236,1
DA:238,1
DA:239,2
DA:240,1
DA:242,1
DA:244,1
DA:251,1
DA:253,1
DA:255,1
DA:256,1
DA:258,1
DA:260,1
DA:261,1
DA:263,1
DA:264,2
DA:265,2
DA:266,2
DA:267,2
DA:275,1
DA:277,1
DA:279,1
DA:286,1
DA:288,1
DA:290,1
DA:291,1
DA:293,1
DA:295,1
DA:296,1
DA:298,1
DA:299,2
DA:306,1
DA:308,1
DA:310,1
DA:319,1
DA:321,1
DA:323,1
DA:324,1
DA:326,1
DA:328,1
DA:329,1
DA:331,1
DA:332,2
DA:333,2
DA:334,2
DA:335,2
DA:336,2
DA:337,2
DA:343,2
DA:351,2
DA:360,1
DA:362,1
DA:364,1
DA:373,1
DA:375,1
DA:377,1
DA:378,1
DA:380,1
DA:382,1
DA:383,1
DA:385,1
DA:386,2
DA:388,1
DA:391,1
DA:392,0
DA:392,1
DA:394,1
end_of_record
SF:/usr/include/c++/11/bits/locale_facets.h
FN:875,_ZNKSt5ctypeIcE5widenEc
FNDA:175,_ZNKSt5ctypeIcE5widenEc
FN:1087,_ZNKSt5ctypeIcE8do_widenEc
FNDA:1,_ZNKSt5ctypeIcE8do_widenEc
DA:875,175
DA:877,175
DA:878,174
DA:879,1
DA:880,1
DA:1087,1
DA:1088,1
end_of_record
SF:/usr/include/c++/11/sstream
DA:688,10
DA:909,10
DA:917,10
DA:918,10
end_of_record
SF:/home/nata/Desktop/2024_Analysis_Airline-Reservation-System/Airline-Reservation-System/src/FlightUI.h
FN:6,_ZN8FlightUI14displayFlightsERNSt7__cxx1112basic_stringIcSt11char_traitsIcESaIcEEES6_R6Flight
FNDA:3,_ZN8FlightUI14displayFlightsERNSt7__cxx1112basic_stringIcSt11char_traitsIcESaIcEEES6_R6Flight
DA:6,3
DA:7,3
DA:8,3
DA:9,3
DA:10,3
DA:11,3
DA:13,3
DA:14,3
DA:15,3
DA:16,3
DA:17,3
DA:18,3
DA:21,2
DA:22,3
DA:25,0
DA:26,3
DA:29,2
DA:30,3
DA:33,0
DA:34,3
DA:35,1
DA:37,2
DA:38,0
DA:41,2
DA:42,2
DA:45,0
DA:46,3
DA:48,3
DA:49,1
DA:51,2
DA:52,0
DA:55,2
DA:56,2
DA:59,0
DA:60,3
DA:62,3
DA:63,3
DA:64,3
end_of_record
